target datalayout = "e-m:e-p270:32:32-p271:32:32-p272:64:64-i64:64-i128:128-f80:128-n8:16:32:64-S128"
target triple = "x86_64-pc-linux-gnu"

%struct.rand_drbg_ctr_st = type { ptr, ptr, ptr, ptr, ptr, i64, i32, [32 x i8], [16 x i8], [16 x i8], i64, [48 x i8] }

; Function Attrs: nounwind uwtable
define internal i32 @ctr_BCC_block(ptr noundef %0, ptr noundef %1, ptr noundef %2, i32 noundef %3) #0 {
  %5 = alloca i32, align 4
  %6 = alloca ptr, align 8
  %7 = alloca ptr, align 8
  %8 = alloca ptr, align 8
  %9 = alloca i32, align 4
  %10 = alloca i32, align 4
  %11 = alloca i32, align 4
  %12 = alloca i32, align 4
  store ptr %0, ptr %6, align 8, !tbaa !17
  store ptr %1, ptr %7, align 8, !tbaa !28
  store ptr %2, ptr %8, align 8, !tbaa !28
  store i32 %3, ptr %9, align 4, !tbaa !27
  call void @llvm.lifetime.start.p0(i64 4, ptr %10) #6
  call void @llvm.lifetime.start.p0(i64 4, ptr %11) #6
  store i32 16, ptr %11, align 4, !tbaa !27
  store i32 0, ptr %10, align 4, !tbaa !27
  br label %13

13:                                               ; preds = %32, %4
  %14 = load i32, ptr %10, align 4, !tbaa !27
  %15 = load i32, ptr %9, align 4, !tbaa !27
  %16 = icmp slt i32 %14, %15
  br i1 %16, label %17, label %35

17:                                               ; preds = %13
  %18 = load ptr, ptr %8, align 8, !tbaa !28
  %19 = load i32, ptr %10, align 4, !tbaa !27
  %20 = sext i32 %19 to i64
  %21 = getelementptr inbounds i8, ptr %18, i64 %20
  %22 = load i8, ptr %21, align 1, !tbaa !35
  %23 = zext i8 %22 to i32
  %24 = load ptr, ptr %7, align 8, !tbaa !28
  %25 = load i32, ptr %10, align 4, !tbaa !27
  %26 = sext i32 %25 to i64
  %27 = getelementptr inbounds i8, ptr %24, i64 %26
  %28 = load i8, ptr %27, align 1, !tbaa !35
  %29 = zext i8 %28 to i32
  %30 = xor i32 %29, %23
  %31 = trunc i32 %30 to i8
  store i8 %31, ptr %27, align 1, !tbaa !35
  br label %32

32:                                               ; preds = %17
  %33 = load i32, ptr %10, align 4, !tbaa !27
  %34 = add nsw i32 %33, 1
  store i32 %34, ptr %10, align 4, !tbaa !27
  br label %13, !llvm.loop !58

35:                                               ; preds = %13
  %36 = load ptr, ptr %6, align 8, !tbaa !17
  %37 = getelementptr inbounds nuw %struct.rand_drbg_ctr_st, ptr %36, i32 0, i32 2
  %38 = load ptr, ptr %37, align 8, !tbaa !24
  %39 = load ptr, ptr %7, align 8, !tbaa !28
  %40 = load ptr, ptr %7, align 8, !tbaa !28
  %41 = load i32, ptr %9, align 4, !tbaa !27
  %42 = call i32 @EVP_CipherUpdate(ptr noundef %38, ptr noundef %39, ptr noundef %11, ptr noundef %40, i32 noundef %41)
  %43 = icmp ne i32 %42, 0
  br i1 %43, label %44, label %48

44:                                               ; preds = %35
  %45 = load i32, ptr %11, align 4, !tbaa !27
  %46 = load i32, ptr %9, align 4, !tbaa !27
  %47 = icmp ne i32 %45, %46
  br i1 %47, label %48, label %49

48:                                               ; preds = %44, %35
  store i32 0, ptr %5, align 4
  store i32 1, ptr %12, align 4
  br label %50

49:                                               ; preds = %44
  store i32 1, ptr %5, align 4
  store i32 1, ptr %12, align 4
  br label %50

50:                                               ; preds = %49, %48
  call void @llvm.lifetime.end.p0(i64 4, ptr %11) #6
  call void @llvm.lifetime.end.p0(i64 4, ptr %10) #6
  %51 = load i32, ptr %5, align 4
  ret i32 %51
}

; Function Attrs: nounwind uwtable
define internal i32 @ctr_BCC_blocks(ptr noundef %0, ptr noundef %1) #0 {
  %3 = alloca ptr, align 8
  %4 = alloca ptr, align 8
  %5 = alloca [48 x i8], align 16
  %6 = alloca i8, align 1
  store ptr %0, ptr %3, align 8, !tbaa !17
  store ptr %1, ptr %4, align 8, !tbaa !28
  call void @llvm.lifetime.start.p0(i64 48, ptr %5) #6
  call void @llvm.lifetime.start.p0(i64 1, ptr %6) #6
  store i8 2, ptr %6, align 1, !tbaa !35
  %7 = getelementptr inbounds [48 x i8], ptr %5, i64 0, i64 0
  %8 = load ptr, ptr %4, align 8, !tbaa !28
  call void @llvm.memcpy.p0.p0.i64(ptr align 16 %7, ptr align 1 %8, i64 16, i1 false)
  %9 = getelementptr inbounds [48 x i8], ptr %5, i64 0, i64 0
  %10 = getelementptr inbounds i8, ptr %9, i64 16
  %11 = load ptr, ptr %4, align 8, !tbaa !28
  call void @llvm.memcpy.p0.p0.i64(ptr align 1 %10, ptr align 1 %11, i64 16, i1 false)
  %12 = load ptr, ptr %3, align 8, !tbaa !17
  %13 = getelementptr inbounds nuw %struct.rand_drbg_ctr_st, ptr %12, i32 0, i32 5
  %14 = load i64, ptr %13, align 8, !tbaa !52
  %15 = icmp ne i64 %14, 16
  br i1 %15, label %16, label %20

16:                                               ; preds = %2
  %17 = getelementptr inbounds [48 x i8], ptr %5, i64 0, i64 0
  %18 = getelementptr inbounds i8, ptr %17, i64 32
  %19 = load ptr, ptr %4, align 8, !tbaa !28
  call void @llvm.memcpy.p0.p0.i64(ptr align 1 %18, ptr align 1 %19, i64 16, i1 false)
  store i8 3, ptr %6, align 1, !tbaa !35
  br label %20

20:                                               ; preds = %16, %2
  %21 = load ptr, ptr %3, align 8, !tbaa !17
  %22 = load ptr, ptr %3, align 8, !tbaa !17
  %23 = getelementptr inbounds nuw %struct.rand_drbg_ctr_st, ptr %22, i32 0, i32 11
  %24 = getelementptr inbounds [48 x i8], ptr %23, i64 0, i64 0
  %25 = getelementptr inbounds [48 x i8], ptr %5, i64 0, i64 0
  %26 = load i8, ptr %6, align 1, !tbaa !35
  %27 = zext i8 %26 to i32
  %28 = mul nsw i32 16, %27
  %29 = call i32 @ctr_BCC_block(ptr noundef %21, ptr noundef %24, ptr noundef %25, i32 noundef %28)
  call void @llvm.lifetime.end.p0(i64 1, ptr %6) #6
  call void @llvm.lifetime.end.p0(i64 48, ptr %5) #6
  ret i32 %29
}

; Function Attrs: nounwind uwtable
define internal i32 @ctr_BCC_update(ptr noundef %0, ptr noundef %1, i64 noundef %2) #0 {
  %4 = alloca i32, align 4
  %5 = alloca ptr, align 8
  %6 = alloca ptr, align 8
  %7 = alloca i64, align 8
  %8 = alloca i64, align 8
  %9 = alloca i32, align 4
  store ptr %0, ptr %5, align 8, !tbaa !17
  store ptr %1, ptr %6, align 8, !tbaa !28
  store i64 %2, ptr %7, align 8, !tbaa !30
  %10 = load ptr, ptr %6, align 8, !tbaa !28
  %11 = icmp eq ptr %10, null
  br i1 %11, label %15, label %12

12:                                               ; preds = %3
  %13 = load i64, ptr %7, align 8, !tbaa !30
  %14 = icmp eq i64 %13, 0
  br i1 %14, label %15, label %16

15:                                               ; preds = %12, %3
  store i32 1, ptr %4, align 4
  br label %94

16:                                               ; preds = %12
  %17 = load ptr, ptr %5, align 8, !tbaa !17
  %18 = getelementptr inbounds nuw %struct.rand_drbg_ctr_st, ptr %17, i32 0, i32 10
  %19 = load i64, ptr %18, align 8, !tbaa !41
  %20 = icmp ne i64 %19, 0
  br i1 %20, label %21, label %59

21:                                               ; preds = %16
  call void @llvm.lifetime.start.p0(i64 8, ptr %8) #6
  %22 = load ptr, ptr %5, align 8, !tbaa !17
  %23 = getelementptr inbounds nuw %struct.rand_drbg_ctr_st, ptr %22, i32 0, i32 10
  %24 = load i64, ptr %23, align 8, !tbaa !41
  %25 = sub i64 16, %24
  store i64 %25, ptr %8, align 8, !tbaa !30
  %26 = load i64, ptr %7, align 8, !tbaa !30
  %27 = load i64, ptr %8, align 8, !tbaa !30
  %28 = icmp uge i64 %26, %27
  br i1 %28, label %29, label %55

29:                                               ; preds = %21
  %30 = load ptr, ptr %5, align 8, !tbaa !17
  %31 = getelementptr inbounds nuw %struct.rand_drbg_ctr_st, ptr %30, i32 0, i32 9
  %32 = getelementptr inbounds [16 x i8], ptr %31, i64 0, i64 0
  %33 = load ptr, ptr %5, align 8, !tbaa !17
  %34 = getelementptr inbounds nuw %struct.rand_drbg_ctr_st, ptr %33, i32 0, i32 10
  %35 = load i64, ptr %34, align 8, !tbaa !41
  %36 = getelementptr inbounds nuw i8, ptr %32, i64 %35
  %37 = load ptr, ptr %6, align 8, !tbaa !28
  %38 = load i64, ptr %8, align 8, !tbaa !30
  call void @llvm.memcpy.p0.p0.i64(ptr align 1 %36, ptr align 1 %37, i64 %38, i1 false)
  %39 = load ptr, ptr %5, align 8, !tbaa !17
  %40 = load ptr, ptr %5, align 8, !tbaa !17
  %41 = getelementptr inbounds nuw %struct.rand_drbg_ctr_st, ptr %40, i32 0, i32 9
  %42 = getelementptr inbounds [16 x i8], ptr %41, i64 0, i64 0
  %43 = call i32 @ctr_BCC_blocks(ptr noundef %39, ptr noundef %42)
  %44 = icmp ne i32 %43, 0
  br i1 %44, label %46, label %45

45:                                               ; preds = %29
  store i32 0, ptr %4, align 4
  store i32 1, ptr %9, align 4
  br label %56

46:                                               ; preds = %29
  %47 = load ptr, ptr %5, align 8, !tbaa !17
  %48 = getelementptr inbounds nuw %struct.rand_drbg_ctr_st, ptr %47, i32 0, i32 10
  store i64 0, ptr %48, align 8, !tbaa !41
  %49 = load i64, ptr %8, align 8, !tbaa !30
  %50 = load i64, ptr %7, align 8, !tbaa !30
  %51 = sub i64 %50, %49
  store i64 %51, ptr %7, align 8, !tbaa !30
  %52 = load i64, ptr %8, align 8, !tbaa !30
  %53 = load ptr, ptr %6, align 8, !tbaa !28
  %54 = getelementptr inbounds nuw i8, ptr %53, i64 %52
  store ptr %54, ptr %6, align 8, !tbaa !28
  br label %55

55:                                               ; preds = %46, %21
  store i32 0, ptr %9, align 4
  br label %56

56:                                               ; preds = %55, %45
  call void @llvm.lifetime.end.p0(i64 8, ptr %8) #6
  %57 = load i32, ptr %9, align 4
  switch i32 %57, label %96 [
    i32 0, label %58
    i32 1, label %94
  ]

58:                                               ; preds = %56
  br label %59

59:                                               ; preds = %58, %16
  br label %60

60:                                               ; preds = %70, %59
  %61 = load i64, ptr %7, align 8, !tbaa !30
  %62 = icmp uge i64 %61, 16
  br i1 %62, label %63, label %75

63:                                               ; preds = %60
  %64 = load ptr, ptr %5, align 8, !tbaa !17
  %65 = load ptr, ptr %6, align 8, !tbaa !28
  %66 = call i32 @ctr_BCC_blocks(ptr noundef %64, ptr noundef %65)
  %67 = icmp ne i32 %66, 0
  br i1 %67, label %69, label %68

68:                                               ; preds = %63
  store i32 0, ptr %4, align 4
  br label %94

69:                                               ; preds = %63
  br label %70

70:                                               ; preds = %69
  %71 = load ptr, ptr %6, align 8, !tbaa !28
  %72 = getelementptr inbounds i8, ptr %71, i64 16
  store ptr %72, ptr %6, align 8, !tbaa !28
  %73 = load i64, ptr %7, align 8, !tbaa !30
  %74 = sub i64 %73, 16
  store i64 %74, ptr %7, align 8, !tbaa !30
  br label %60, !llvm.loop !57

75:                                               ; preds = %60
  %76 = load i64, ptr %7, align 8, !tbaa !30
  %77 = icmp ugt i64 %76, 0
  br i1 %77, label %78, label %93

78:                                               ; preds = %75
  %79 = load ptr, ptr %5, align 8, !tbaa !17
  %80 = getelementptr inbounds nuw %struct.rand_drbg_ctr_st, ptr %79, i32 0, i32 9
  %81 = getelementptr inbounds [16 x i8], ptr %80, i64 0, i64 0
  %82 = load ptr, ptr %5, align 8, !tbaa !17
  %83 = getelementptr inbounds nuw %struct.rand_drbg_ctr_st, ptr %82, i32 0, i32 10
  %84 = load i64, ptr %83, align 8, !tbaa !41
  %85 = getelementptr inbounds nuw i8, ptr %81, i64 %84
  %86 = load ptr, ptr %6, align 8, !tbaa !28
  %87 = load i64, ptr %7, align 8, !tbaa !30
  call void @llvm.memcpy.p0.p0.i64(ptr align 1 %85, ptr align 1 %86, i64 %87, i1 false)
  %88 = load i64, ptr %7, align 8, !tbaa !30
  %89 = load ptr, ptr %5, align 8, !tbaa !17
  %90 = getelementptr inbounds nuw %struct.rand_drbg_ctr_st, ptr %89, i32 0, i32 10
  %91 = load i64, ptr %90, align 8, !tbaa !41
  %92 = add i64 %91, %88
  store i64 %92, ptr %90, align 8, !tbaa !41
  br label %93

93:                                               ; preds = %78, %75
  store i32 1, ptr %4, align 4
  br label %94

94:                                               ; preds = %93, %68, %56, %15
  %95 = load i32, ptr %4, align 4
  ret i32 %95

96:                                               ; preds = %56
  unreachable
}