; Function Attrs: nounwind uwtable
define internal fastcc range(i32 0, 2) i32 @ctr_BCC_update(ptr noundef %0, ptr noundef readonly captures(address_is_null) %1, i64 noundef %2) unnamed_addr #0 {
  %4 = alloca i32, align 4
  %5 = alloca [48 x i8], align 16
  %6 = alloca i32, align 4
  %7 = alloca [48 x i8], align 16
  %8 = icmp eq ptr %1, null
  %9 = icmp eq i64 %2, 0
  %or.cond = or i1 %8, %9
  br i1 %or.cond, label %.loopexit, label %10

10:                                               ; preds = %3
  %11 = getelementptr inbounds nuw i8, ptr %0, i64 120
  %12 = load i64, ptr %11, align 8, !tbaa !21
  %.not = icmp eq i64 %12, 0
  br i1 %.not, label %.thread, label %13

13:                                               ; preds = %10
  %14 = sub i64 16, %12
  %.not42 = icmp ult i64 %2, %14
  br i1 %.not42, label %.thread, label %15

15:                                               ; preds = %13
  %16 = getelementptr inbounds nuw i8, ptr %0, i64 100
  %17 = getelementptr inbounds nuw i8, ptr %16, i64 %12
  tail call void @llvm.memcpy.p0.p0.i64(ptr nonnull align 1 %17, ptr nonnull align 1 %1, i64 %14, i1 false)
  call void @llvm.lifetime.start.p0(i64 48, ptr nonnull %7) #7
  call void @llvm.memcpy.p0.p0.i64(ptr noundef nonnull align 16 dereferenceable(16) %7, ptr noundef nonnull readonly align 1 dereferenceable(16) %16, i64 16, i1 false)
  %18 = getelementptr inbounds nuw i8, ptr %7, i64 16
  call void @llvm.memcpy.p0.p0.i64(ptr noundef nonnull align 16 dereferenceable(16) %18, ptr noundef nonnull readonly align 1 dereferenceable(16) %16, i64 16, i1 false)
  %19 = getelementptr inbounds nuw i8, ptr %0, i64 40
  %20 = load i64, ptr %19, align 8, !tbaa !37
  %.not.i = icmp eq i64 %20, 16
  br i1 %.not.i, label %23, label %21

21:                                               ; preds = %15
  %22 = getelementptr inbounds nuw i8, ptr %7, i64 32
  call void @llvm.memcpy.p0.p0.i64(ptr noundef nonnull align 16 dereferenceable(16) %22, ptr noundef nonnull readonly align 1 dereferenceable(16) %16, i64 16, i1 false)
  br label %23

23:                                               ; preds = %21, %15
  %.0.i = phi i32 [ 48, %21 ], [ 32, %15 ]
  %24 = getelementptr inbounds nuw i8, ptr %0, i64 128
  call void @llvm.lifetime.start.p0(i64 4, ptr nonnull %6) #7
  store i32 16, ptr %6, align 4, !tbaa !22
  %wide.trip.count.i.i = zext nneg i32 %.0.i to i64
  br label %25

25:                                               ; preds = %25, %23
  %indvars.iv.i.i = phi i64 [ 0, %23 ], [ %indvars.iv.next.i.i, %25 ]
  %26 = getelementptr inbounds nuw i8, ptr %7, i64 %indvars.iv.i.i
  %27 = load i8, ptr %26, align 1, !tbaa !26
  %28 = getelementptr inbounds nuw i8, ptr %24, i64 %indvars.iv.i.i
  %29 = load i8, ptr %28, align 1, !tbaa !26
  %30 = xor i8 %29, %27
  store i8 %30, ptr %28, align 1, !tbaa !26
  %indvars.iv.next.i.i = add nuw nsw i64 %indvars.iv.i.i, 1
  %exitcond.not.i.i = icmp eq i64 %indvars.iv.next.i.i, %wide.trip.count.i.i
  br i1 %exitcond.not.i.i, label %ctr_BCC_blocks.exit, label %25, !llvm.loop !43

ctr_BCC_blocks.exit:                              ; preds = %25
  %31 = getelementptr inbounds nuw i8, ptr %0, i64 16
  %32 = load ptr, ptr %31, align 8, !tbaa !17
  %33 = call i32 @EVP_CipherUpdate(ptr noundef %32, ptr noundef nonnull %24, ptr noundef nonnull %6, ptr noundef nonnull %24, i32 noundef range(i32 32, 49) %.0.i) #7
  %.not.i.i = icmp eq i32 %33, 0
  %34 = load i32, ptr %6, align 4
  %.not14.i.i = icmp ne i32 %34, %.0.i
  %or.cond.i.i.not = select i1 %.not.i.i, i1 true, i1 %.not14.i.i
  call void @llvm.lifetime.end.p0(i64 4, ptr nonnull %6) #7
  call void @llvm.lifetime.end.p0(i64 48, ptr nonnull %7) #7
  br i1 %or.cond.i.i.not, label %.loopexit, label %35

35:                                               ; preds = %ctr_BCC_blocks.exit
  store i64 0, ptr %11, align 8, !tbaa !21
  %36 = sub i64 %2, %14
  %37 = getelementptr inbounds nuw i8, ptr %1, i64 %14
  br label %.thread

.thread:                                          ; preds = %13, %35, %10
  %.034 = phi ptr [ %1, %10 ], [ %1, %13 ], [ %37, %35 ]
  %.032 = phi i64 [ %2, %10 ], [ %2, %13 ], [ %36, %35 ]
  %38 = icmp ugt i64 %.032, 15
  br i1 %38, label %.lr.ph, label %._crit_edge

.lr.ph:                                           ; preds = %.thread
  %39 = getelementptr inbounds nuw i8, ptr %5, i64 16
  %40 = getelementptr inbounds nuw i8, ptr %0, i64 40
  %41 = getelementptr inbounds nuw i8, ptr %5, i64 32
  %42 = getelementptr inbounds nuw i8, ptr %0, i64 128
  %43 = getelementptr inbounds nuw i8, ptr %0, i64 16
  br label %44

44:                                               ; preds = %.lr.ph, %57
  %.364 = phi i64 [ %.032, %.lr.ph ], [ %59, %57 ]
  %.33763 = phi ptr [ %.034, %.lr.ph ], [ %58, %57 ]
  call void @llvm.lifetime.start.p0(i64 48, ptr nonnull %5) #7
  call void @llvm.memcpy.p0.p0.i64(ptr noundef nonnull align 16 dereferenceable(16) %5, ptr noundef nonnull readonly align 1 dereferenceable(16) %.33763, i64 16, i1 false)
  call void @llvm.memcpy.p0.p0.i64(ptr noundef nonnull align 16 dereferenceable(16) %39, ptr noundef nonnull readonly align 1 dereferenceable(16) %.33763, i64 16, i1 false)
  %45 = load i64, ptr %40, align 8, !tbaa !37
  %.not.i46 = icmp eq i64 %45, 16
  br i1 %.not.i46, label %47, label %46

46:                                               ; preds = %44
  call void @llvm.memcpy.p0.p0.i64(ptr noundef nonnull align 16 dereferenceable(16) %41, ptr noundef nonnull readonly align 1 dereferenceable(16) %.33763, i64 16, i1 false)
  br label %47

47:                                               ; preds = %46, %44
  %.0.i47 = phi i32 [ 48, %46 ], [ 32, %44 ]
  call void @llvm.lifetime.start.p0(i64 4, ptr nonnull %4) #7
  store i32 16, ptr %4, align 4, !tbaa !22
  %wide.trip.count.i.i48 = zext nneg i32 %.0.i47 to i64
  br label %48

48:                                               ; preds = %48, %47
  %indvars.iv.i.i49 = phi i64 [ 0, %47 ], [ %indvars.iv.next.i.i50, %48 ]
  %49 = getelementptr inbounds nuw i8, ptr %5, i64 %indvars.iv.i.i49
  %50 = load i8, ptr %49, align 1, !tbaa !26
  %51 = getelementptr inbounds nuw i8, ptr %42, i64 %indvars.iv.i.i49
  %52 = load i8, ptr %51, align 1, !tbaa !26
  %53 = xor i8 %52, %50
  store i8 %53, ptr %51, align 1, !tbaa !26
  %indvars.iv.next.i.i50 = add nuw nsw i64 %indvars.iv.i.i49, 1
  %exitcond.not.i.i51 = icmp eq i64 %indvars.iv.next.i.i50, %wide.trip.count.i.i48
  br i1 %exitcond.not.i.i51, label %ctr_BCC_blocks.exit56, label %48, !llvm.loop !43

ctr_BCC_blocks.exit56:                            ; preds = %48
  %54 = load ptr, ptr %43, align 8, !tbaa !17
  %55 = call i32 @EVP_CipherUpdate(ptr noundef %54, ptr noundef nonnull %42, ptr noundef nonnull %4, ptr noundef nonnull %42, i32 noundef range(i32 32, 49) %.0.i47) #7
  %.not.i.i52 = icmp eq i32 %55, 0
  %56 = load i32, ptr %4, align 4
  %.not14.i.i53 = icmp ne i32 %56, %.0.i47
  %or.cond.i.i54.not = select i1 %.not.i.i52, i1 true, i1 %.not14.i.i53
  call void @llvm.lifetime.end.p0(i64 4, ptr nonnull %4) #7
  call void @llvm.lifetime.end.p0(i64 48, ptr nonnull %5) #7
  br i1 %or.cond.i.i54.not, label %.loopexit, label %57

57:                                               ; preds = %ctr_BCC_blocks.exit56
  %58 = getelementptr inbounds nuw i8, ptr %.33763, i64 16
  %59 = add i64 %.364, -16
  %60 = icmp ugt i64 %59, 15
  br i1 %60, label %44, label %._crit_edge, !llvm.loop !47

._crit_edge:                                      ; preds = %57, %.thread
  %.337.lcssa = phi ptr [ %.034, %.thread ], [ %58, %57 ]
  %.3.lcssa = phi i64 [ %.032, %.thread ], [ %59, %57 ]
  %.not44 = icmp eq i64 %.3.lcssa, 0
  br i1 %.not44, label %.loopexit, label %61

61:                                               ; preds = %._crit_edge
  %62 = getelementptr inbounds nuw i8, ptr %0, i64 100
  %63 = load i64, ptr %11, align 8, !tbaa !21
  %64 = getelementptr inbounds nuw i8, ptr %62, i64 %63
  call void @llvm.memcpy.p0.p0.i64(ptr nonnull align 1 %64, ptr align 1 %.337.lcssa, i64 %.3.lcssa, i1 false)
  %65 = load i64, ptr %11, align 8, !tbaa !21
  %66 = add i64 %65, %.3.lcssa
  store i64 %66, ptr %11, align 8, !tbaa !21
  br label %.loopexit

.loopexit:                                        ; preds = %ctr_BCC_blocks.exit56, %ctr_BCC_blocks.exit, %._crit_edge, %61, %3
  %.031 = phi i32 [ 1, %3 ], [ 1, %61 ], [ 1, %._crit_edge ], [ 0, %ctr_BCC_blocks.exit ], [ 0, %ctr_BCC_blocks.exit56 ]
  ret i32 %.031
}